(S'##BEGINNING OF PROGRAM##'
p0
S'Tab Number 1'
p1
S'Move J [foo] J1) 7421  J2) 3913  J3) 779  J4) 2855  J5) 2200  J6) 6750  Speed-50 Ad 10 As 25 Dd 25 Ds 10'
p2
S'Move J [*] J1) 7857  J2) 7826  J3) 779  J4) 2855  J5) 2200  J6) 6750  Speed-50 Ad 10 As 25 Dd 25 Ds 10'
p3
tp4
.