(S'##BEGINNING OF PROGRAM##'
p0
S'Tab Number 1'
p1
S'Store Position 2 Element 1 = --20'
p2
S'OFFS J [SP:2] [*]  X) 286.849   Y) -359.29   Z) -1.048   W) -147.388   P) 179.628   R) -44.597   T) 40.0   Speed-25 Ad 15 As 10 Dd 20 Ds 5 $F'
p3
S'Jump Tab-1'
p4
S'Move J [*]  X) 286.849   Y) -359.29   Z) -1.048   W) -147.388   P) 179.628   R) -44.597   T) 40.0   Speed-25 Ad 15 As 10 Dd 20 Ds 5 $F'
p5
tp6
.